target datalayout = "e-m:e-p270:32:32-p271:32:32-p272:64:64-i64:64-i128:128-f80:128-n8:16:32:64-S128"
target triple = "x86_64-pc-linux-gnu"

%struct.P9Req = type { ptr, ptr, i16, i64, i32, i64, i64, i64, i32 }

@alloc = internal global ptr null, align 8

; Function Attrs: inlinehint nounwind sspstrong uwtable
define internal void @le32_to_cpus(ptr noundef %0) #3 {
  %2 = alloca ptr, align 8
  store ptr %0, ptr %2, align 8
  ret void
}

; Function Attrs: nounwind sspstrong uwtable
define dso_local void @v9fs_req_free(ptr noundef %0) #0 {
  %2 = alloca ptr, align 8
  store ptr %0, ptr %2, align 8
  %3 = load ptr, ptr @alloc, align 8
  %4 = load ptr, ptr %2, align 8
  %5 = getelementptr inbounds nuw %struct.P9Req, ptr %4, i32 0, i32 3
  %6 = load i64, ptr %5, align 8
  call void @guest_free(ptr noundef %3, i64 noundef %6)
  %7 = load ptr, ptr @alloc, align 8
  %8 = load ptr, ptr %2, align 8
  %9 = getelementptr inbounds nuw %struct.P9Req, ptr %8, i32 0, i32 5
  %10 = load i64, ptr %9, align 8
  call void @guest_free(ptr noundef %7, i64 noundef %10)
  %11 = load ptr, ptr %2, align 8
  call void @g_free(ptr noundef %11)
  ret void
}

; Function Attrs: nounwind sspstrong uwtable
define dso_local void @v9fs_uint32_read(ptr noundef %0, ptr noundef %1) #0 {
  %3 = alloca ptr, align 8
  %4 = alloca ptr, align 8
  store ptr %0, ptr %3, align 8
  store ptr %1, ptr %4, align 8
  %5 = load ptr, ptr %3, align 8
  %6 = load ptr, ptr %4, align 8
  call void @v9fs_memread(ptr noundef %5, ptr noundef %6, i64 noundef 4)
  %7 = load ptr, ptr %4, align 8
  call void @le32_to_cpus(ptr noundef %7)
  ret void
}

; Function Attrs: nounwind sspstrong uwtable
define dso_local void @v9fs_memskip(ptr noundef %0, i64 noundef %1) #0 {
  %3 = alloca ptr, align 8
  %4 = alloca i64, align 8
  store ptr %0, ptr %3, align 8
  store i64 %1, ptr %4, align 8
  %5 = load i64, ptr %4, align 8
  %6 = load ptr, ptr %3, align 8
  %7 = getelementptr inbounds nuw %struct.P9Req, ptr %6, i32 0, i32 7
  %8 = load i64, ptr %7, align 8
  %9 = add i64 %8, %5
  store i64 %9, ptr %7, align 8
  ret void
}

; Function Attrs: nounwind sspstrong uwtable
define dso_local void @v9fs_memread(ptr noundef %0, ptr noundef %1, i64 noundef %2) #0 {
  %4 = alloca ptr, align 8
  %5 = alloca ptr, align 8
  %6 = alloca i64, align 8
  store ptr %0, ptr %4, align 8
  store ptr %1, ptr %5, align 8
  store i64 %2, ptr %6, align 8
  %7 = load ptr, ptr %4, align 8
  %8 = getelementptr inbounds nuw %struct.P9Req, ptr %7, i32 0, i32 0
  %9 = load ptr, ptr %8, align 8
  %10 = load ptr, ptr %4, align 8
  %11 = getelementptr inbounds nuw %struct.P9Req, ptr %10, i32 0, i32 5
  %12 = load i64, ptr %11, align 8
  %13 = load ptr, ptr %4, align 8
  %14 = getelementptr inbounds nuw %struct.P9Req, ptr %13, i32 0, i32 7
  %15 = load i64, ptr %14, align 8
  %16 = add i64 %12, %15
  %17 = load ptr, ptr %5, align 8
  %18 = load i64, ptr %6, align 8
  call void @qtest_memread(ptr noundef %9, i64 noundef %16, ptr noundef %17, i64 noundef %18)
  %19 = load i64, ptr %6, align 8
  %20 = load ptr, ptr %4, align 8
  %21 = getelementptr inbounds nuw %struct.P9Req, ptr %20, i32 0, i32 7
  %22 = load i64, ptr %21, align 8
  %23 = add i64 %22, %19
  store i64 %23, ptr %21, align 8
  ret void
}

; Function Attrs: nounwind sspstrong uwtable
define dso_local void @v9fs_rlopen(ptr noundef %0, ptr noundef %1, ptr noundef %2) #0 {
  %4 = alloca ptr, align 8
  %5 = alloca ptr, align 8
  %6 = alloca ptr, align 8
  store ptr %0, ptr %4, align 8
  store ptr %1, ptr %5, align 8
  store ptr %2, ptr %6, align 8
  %7 = load ptr, ptr %4, align 8
  call void @v9fs_req_recv(ptr noundef %7, i8 noundef zeroext 13)
  %8 = load ptr, ptr %5, align 8
  %9 = icmp ne ptr %8, null
  br i1 %9, label %10, label %13

10:                                               ; preds = %3
  %11 = load ptr, ptr %4, align 8
  %12 = load ptr, ptr %5, align 8
  call void @v9fs_memread(ptr noundef %11, ptr noundef %12, i64 noundef 13)
  br label %15

13:                                               ; preds = %3
  %14 = load ptr, ptr %4, align 8
  call void @v9fs_memskip(ptr noundef %14, i64 noundef 13)
  br label %15

15:                                               ; preds = %13, %10
  %16 = load ptr, ptr %6, align 8
  %17 = icmp ne ptr %16, null
  br i1 %17, label %18, label %21

18:                                               ; preds = %15
  %19 = load ptr, ptr %4, align 8
  %20 = load ptr, ptr %6, align 8
  call void @v9fs_uint32_read(ptr noundef %19, ptr noundef %20)
  br label %21

21:                                               ; preds = %18, %15
  %22 = load ptr, ptr %4, align 8
  call void @v9fs_req_free(ptr noundef %22)
  ret void
}